; Function Attrs: nounwind uwtable
define noalias nonnull ptr @l_Std_Time_PlainTime_addNanoseconds(ptr noundef readonly captures(none) %0, ptr noundef %1) local_unnamed_addr #0 {
  %3 = tail call ptr @l_Std_Time_PlainTime_toNanoseconds(ptr noundef %0)
  %4 = ptrtoint ptr %3 to i64
  %5 = and i64 %4, 1
  %.not.i10 = icmp eq i64 %5, 0
  br i1 %.not.i10, label %25, label %6, !prof !8

6:                                                ; preds = %2
  %7 = ptrtoint ptr %1 to i64
  %8 = and i64 %7, 1
  %.not7.i = icmp eq i64 %8, 0
  br i1 %.not7.i, label %lean_int_add.exit.thread13, label %10, !prof !8

lean_int_add.exit.thread13:                       ; preds = %6
  %9 = tail call ptr @lean_int_big_add(ptr noundef %3, ptr noundef %1) #4
  br label %lean_dec.exit7

10:                                               ; preds = %6
  %11 = shl i64 %4, 31
  %12 = ashr i64 %11, 32
  %13 = shl i64 %7, 31
  %14 = ashr i64 %13, 32
  %15 = add nsw i64 %12, %14
  %16 = add nsw i64 %15, 2147483648
  %17 = icmp ult i64 %16, 4294967296
  br i1 %17, label %18, label %23, !prof !14

18:                                               ; preds = %10
  %19 = shl nsw i64 %15, 1
  %20 = and i64 %19, 8589934590
  %21 = or disjoint i64 %20, 1
  %22 = inttoptr i64 %21 to ptr
  br label %lean_dec.exit7

23:                                               ; preds = %10
  %24 = tail call ptr @lean_big_int64_to_int(i64 noundef range(i64 -4611686016279904256, -9223372036854775808) %15) #4
  br label %lean_dec.exit7

25:                                               ; preds = %2
  %26 = tail call ptr @lean_int_big_add(ptr noundef %3, ptr noundef %1) #4
  %27 = load i32, ptr %3, align 4, !tbaa !9
  %28 = icmp sgt i32 %27, 1
  br i1 %28, label %29, label %31, !prof !14

29:                                               ; preds = %25
  %30 = add nsw i32 %27, -1
  store i32 %30, ptr %3, align 4, !tbaa !9
  br label %lean_dec.exit7

31:                                               ; preds = %25
  %.not.i = icmp eq i32 %27, 0
  br i1 %.not.i, label %lean_dec.exit7, label %32

32:                                               ; preds = %31
  tail call void @lean_dec_ref_cold(ptr noundef nonnull %3) #4
  br label %lean_dec.exit7

lean_dec.exit7:                                   ; preds = %23, %18, %32, %31, %29, %lean_int_add.exit.thread13
  %.0.i12 = phi ptr [ %9, %lean_int_add.exit.thread13 ], [ %26, %29 ], [ %26, %31 ], [ %26, %32 ], [ %24, %23 ], [ %22, %18 ]
  %33 = tail call ptr @l_Std_Time_PlainTime_ofNanoseconds(ptr noundef %.0.i12)
  %34 = ptrtoint ptr %.0.i12 to i64
  %35 = and i64 %34, 1
  %.not = icmp eq i64 %35, 0
  br i1 %.not, label %36, label %lean_dec.exit

36:                                               ; preds = %lean_dec.exit7
  %37 = load i32, ptr %.0.i12, align 4, !tbaa !9
  %38 = icmp sgt i32 %37, 1
  br i1 %38, label %39, label %41, !prof !14

39:                                               ; preds = %36
  %40 = add nsw i32 %37, -1
  store i32 %40, ptr %.0.i12, align 4, !tbaa !9
  br label %lean_dec.exit

41:                                               ; preds = %36
  %.not.i8 = icmp eq i32 %37, 0
  br i1 %.not.i8, label %lean_dec.exit, label %42

42:                                               ; preds = %41
  tail call void @lean_dec_ref_cold(ptr noundef nonnull %.0.i12) #4
  br label %lean_dec.exit

lean_dec.exit:                                    ; preds = %42, %41, %39, %lean_dec.exit7
  ret ptr %33
}